(dp0
S'employment'
p1
(dp2
S'job'
p3
S'Senior Programmer'
p4
sS'education'
p5
S'Master of Science'
p6
sS'specialization'
p7
S'Information technology'
p8
ssS'user'
p9
(dp10
S'lastname'
p11
S'Brooks'
p12
sS'age'
p13
I25
sS'firstname'
p14
S'Brian'
p15
ssS'family'
p16
(dp17
S'married'
p18
S'Yes'
p19
sS'children'
p20
I2
ssS'address'
p21
(dp22
S'zip-code'
p23
I53110
sS'street'
p24
S'Example Street'
p25
sS'streetnumber'
p26
I124
sS'country'
p27
S'Finland'
p28
ss.