(dp0
S'user'
p1
(dp2
S'lastname'
p3
S'Brooks'
p4
sS'age'
p5
I25
sS'firstname'
p6
S'Brian'
p7
ssS'address'
p8
(dp9
S'zip-code'
p10
I53110
sS'street'
p11
S'Example Street'
p12
sS'streetnumber'
p13
I124
sS'country'
p14
S'Finland'
p15
ss.